; Function Attrs: nounwind uwtable
define nonnull ptr @l_Option_beqOption____x40_Init_Data_Option_Basic___hyg_160____at_Lean_forEachModuleInDir___spec__1___boxed(ptr noundef %0, ptr noundef %1) local_unnamed_addr #0 {
  %3 = ptrtoint ptr %0 to i64
  %4 = and i64 %3, 1
  %.not.i.i = icmp eq i64 %4, 0
  br i1 %.not.i.i, label %8, label %5

5:                                                ; preds = %2
  %6 = lshr i64 %3, 1
  %7 = trunc i64 %6 to i32
  br label %lean_obj_tag.exit.i

8:                                                ; preds = %2
  %9 = getelementptr i8, ptr %0, i64 4
  %.val.i.i = load i32, ptr %9, align 4
  %10 = lshr i32 %.val.i.i, 24
  br label %lean_obj_tag.exit.i

lean_obj_tag.exit.i:                              ; preds = %8, %5
  %.0.i.i = phi i32 [ %7, %5 ], [ %10, %8 ]
  %11 = icmp eq i32 %.0.i.i, 0
  %12 = ptrtoint ptr %1 to i64
  %13 = and i64 %12, 1
  %.not.i11.i = icmp eq i64 %13, 0
  br i1 %11, label %14, label %22

14:                                               ; preds = %lean_obj_tag.exit.i
  br i1 %.not.i11.i, label %18, label %15

15:                                               ; preds = %14
  %16 = lshr i64 %12, 1
  %17 = trunc i64 %16 to i32
  br label %lean_obj_tag.exit14.i

18:                                               ; preds = %14
  %19 = getelementptr i8, ptr %1, i64 4
  %.val.i13.i = load i32, ptr %19, align 4
  %20 = lshr i32 %.val.i13.i, 24
  br label %lean_obj_tag.exit14.i

lean_obj_tag.exit14.i:                            ; preds = %18, %15
  %.0.i12.i = phi i32 [ %17, %15 ], [ %20, %18 ]
  %21 = icmp eq i32 %.0.i12.i, 0
  br label %l_Option_beqOption____x40_Init_Data_Option_Basic___hyg_160____at_Lean_forEachModuleInDir___spec__1.exit

22:                                               ; preds = %lean_obj_tag.exit.i
  br i1 %.not.i11.i, label %26, label %23

23:                                               ; preds = %22
  %24 = lshr i64 %12, 1
  %25 = trunc i64 %24 to i32
  br label %lean_obj_tag.exit18.i

26:                                               ; preds = %22
  %27 = getelementptr i8, ptr %1, i64 4
  %.val.i17.i = load i32, ptr %27, align 4
  %28 = lshr i32 %.val.i17.i, 24
  br label %lean_obj_tag.exit18.i

lean_obj_tag.exit18.i:                            ; preds = %26, %23
  %.0.i16.i = phi i32 [ %25, %23 ], [ %28, %26 ]
  %29 = icmp eq i32 %.0.i16.i, 0
  br i1 %29, label %l_Option_beqOption____x40_Init_Data_Option_Basic___hyg_160____at_Lean_forEachModuleInDir___spec__1.exit, label %30

30:                                               ; preds = %lean_obj_tag.exit18.i
  %31 = getelementptr inbounds nuw i8, ptr %0, i64 8
  %32 = load ptr, ptr %31, align 8, !tbaa !4
  %33 = getelementptr inbounds nuw i8, ptr %1, i64 8
  %34 = load ptr, ptr %33, align 8, !tbaa !4
  %35 = icmp eq ptr %32, %34
  br i1 %35, label %l_Option_beqOption____x40_Init_Data_Option_Basic___hyg_160____at_Lean_forEachModuleInDir___spec__1.exit, label %36

36:                                               ; preds = %30
  %37 = getelementptr i8, ptr %32, i64 8
  %.val.i.i.i = load i64, ptr %37, align 8, !tbaa !8
  %38 = getelementptr i8, ptr %34, i64 8
  %.val7.i.i.i = load i64, ptr %38, align 8, !tbaa !8
  %39 = icmp eq i64 %.val.i.i.i, %.val7.i.i.i
  br i1 %39, label %40, label %l_Option_beqOption____x40_Init_Data_Option_Basic___hyg_160____at_Lean_forEachModuleInDir___spec__1.exit

40:                                               ; preds = %36
  %41 = tail call zeroext i1 @lean_string_eq_cold(ptr noundef nonnull %32, ptr noundef nonnull %34) #4
  br label %l_Option_beqOption____x40_Init_Data_Option_Basic___hyg_160____at_Lean_forEachModuleInDir___spec__1.exit

l_Option_beqOption____x40_Init_Data_Option_Basic___hyg_160____at_Lean_forEachModuleInDir___spec__1.exit: ; preds = %lean_obj_tag.exit14.i, %lean_obj_tag.exit18.i, %30, %36, %40
  %.0.shrunk.i = phi i1 [ %21, %lean_obj_tag.exit14.i ], [ false, %lean_obj_tag.exit18.i ], [ true, %30 ], [ false, %36 ], [ %41, %40 ]
  br i1 %.not.i11.i, label %42, label %lean_dec.exit5

42:                                               ; preds = %l_Option_beqOption____x40_Init_Data_Option_Basic___hyg_160____at_Lean_forEachModuleInDir___spec__1.exit
  %43 = load i32, ptr %1, align 4, !tbaa !10
  %44 = icmp sgt i32 %43, 1
  br i1 %44, label %45, label %47, !prof !13

45:                                               ; preds = %42
  %46 = add nsw i32 %43, -1
  store i32 %46, ptr %1, align 4, !tbaa !10
  br label %lean_dec.exit5

47:                                               ; preds = %42
  %.not.i = icmp eq i32 %43, 0
  br i1 %.not.i, label %lean_dec.exit5, label %48

48:                                               ; preds = %47
  tail call void @lean_dec_ref_cold(ptr noundef nonnull %1) #4
  br label %lean_dec.exit5

lean_dec.exit5:                                   ; preds = %48, %47, %45, %l_Option_beqOption____x40_Init_Data_Option_Basic___hyg_160____at_Lean_forEachModuleInDir___spec__1.exit
  br i1 %.not.i.i, label %49, label %lean_dec.exit

49:                                               ; preds = %lean_dec.exit5
  %50 = load i32, ptr %0, align 4, !tbaa !10
  %51 = icmp sgt i32 %50, 1
  br i1 %51, label %52, label %54, !prof !13

52:                                               ; preds = %49
  %53 = add nsw i32 %50, -1
  store i32 %53, ptr %0, align 4, !tbaa !10
  br label %lean_dec.exit

54:                                               ; preds = %49
  %.not.i6 = icmp eq i32 %50, 0
  br i1 %.not.i6, label %lean_dec.exit, label %55

55:                                               ; preds = %54
  tail call void @lean_dec_ref_cold(ptr noundef nonnull %0) #4
  br label %lean_dec.exit

lean_dec.exit:                                    ; preds = %55, %54, %52, %lean_dec.exit5
  %56 = select i1 %.0.shrunk.i, ptr inttoptr (i64 3 to ptr), ptr inttoptr (i64 1 to ptr)
  ret ptr %56
}